target datalayout = "e-m:e-p270:32:32-p271:32:32-p272:64:64-i64:64-i128:128-f80:128-n8:16:32:64-S128"
target triple = "x86_64-pc-linux-gnu"

%"class.pbrt::RNG" = type { i64, i64 }
%"class.pbrt::MLTSampler" = type { i32, %"class.pbrt::RNG", float, float, i32, %"class.pstd::vector.18", i64, i8, i64, i32, i32 }
%"class.pstd::vector.18" = type { %"class.pstd::pmr::polymorphic_allocator.19", ptr, i64, i64 }
%"class.pstd::pmr::polymorphic_allocator.19" = type { ptr }
%"struct.pbrt::MLTSampler::PrimarySample" = type { float, i64, float, i64 }

; Function Attrs: mustprogress nounwind uwtable
define linkonce_odr dso_local noundef nonnull align 8 dereferenceable(32) ptr @_ZN4pstd6vectorIN4pbrt10MLTSampler13PrimarySampleENS_3pmr21polymorphic_allocatorIS3_EEEixEm(ptr noundef nonnull align 8 dereferenceable(32) %0, i64 noundef %1) #3 comdat align 2 {
  %3 = alloca ptr, align 8
  %4 = alloca i64, align 8
  store ptr %0, ptr %3, align 8, !tbaa !161
  store i64 %1, ptr %4, align 8, !tbaa !58
  %5 = load ptr, ptr %3, align 8
  br label %6

6:                                                ; preds = %2
  br label %7

7:                                                ; preds = %6
  %8 = getelementptr inbounds nuw %"class.pstd::vector.18", ptr %5, i32 0, i32 1
  %9 = load ptr, ptr %8, align 8, !tbaa !163
  %10 = load i64, ptr %4, align 8, !tbaa !58
  %11 = getelementptr inbounds nuw %"struct.pbrt::MLTSampler::PrimarySample", ptr %9, i64 %10
  ret ptr %11
}

; Function Attrs: mustprogress nounwind uwtable
define linkonce_odr dso_local noundef i32 @_ZN4pbrt10MLTSampler12GetNextIndexEv(ptr noundef nonnull align 8 dereferenceable(104) %0) #3 comdat align 2 {
  %2 = alloca ptr, align 8
  store ptr %0, ptr %2, align 8, !tbaa !143
  %3 = load ptr, ptr %2, align 8
  %4 = getelementptr inbounds nuw %"class.pbrt::MLTSampler", ptr %3, i32 0, i32 9
  %5 = load i32, ptr %4, align 8, !tbaa !147
  %6 = getelementptr inbounds nuw %"class.pbrt::MLTSampler", ptr %3, i32 0, i32 4
  %7 = load i32, ptr %6, align 8, !tbaa !153
  %8 = getelementptr inbounds nuw %"class.pbrt::MLTSampler", ptr %3, i32 0, i32 10
  %9 = load i32, ptr %8, align 4, !tbaa !154
  %10 = add nsw i32 %9, 1
  store i32 %10, ptr %8, align 4, !tbaa !154
  %11 = mul nsw i32 %7, %9
  %12 = add nsw i32 %5, %11
  ret i32 %12
}

; Function Attrs: mustprogress uwtable
define dso_local noundef float @_ZN4pbrt10MLTSampler5Get1DEv(ptr noundef nonnull align 8 dereferenceable(104) %0) #1 align 2 {
  %2 = alloca ptr, align 8
  %3 = alloca i32, align 4
  store ptr %0, ptr %2, align 8, !tbaa !143
  %4 = load ptr, ptr %2, align 8
  call void @llvm.lifetime.start.p0(i64 4, ptr %3) #21
  %5 = call noundef i32 @_ZN4pbrt10MLTSampler12GetNextIndexEv(ptr noundef nonnull align 8 dereferenceable(104) %4)
  store i32 %5, ptr %3, align 4, !tbaa !31
  %6 = load i32, ptr %3, align 4, !tbaa !31
  call void @_ZN4pbrt10MLTSampler11EnsureReadyEi(ptr noundef nonnull align 8 dereferenceable(104) %4, i32 noundef %6)
  %7 = getelementptr inbounds nuw %"class.pbrt::MLTSampler", ptr %4, i32 0, i32 5
  %8 = load i32, ptr %3, align 4, !tbaa !31
  %9 = sext i32 %8 to i64
  %10 = call noundef nonnull align 8 dereferenceable(32) ptr @_ZN4pstd6vectorIN4pbrt10MLTSampler13PrimarySampleENS_3pmr21polymorphic_allocatorIS3_EEEixEm(ptr noundef nonnull align 8 dereferenceable(32) %7, i64 noundef %9)
  %11 = getelementptr inbounds nuw %"struct.pbrt::MLTSampler::PrimarySample", ptr %10, i32 0, i32 0
  %12 = load float, ptr %11, align 8, !tbaa !145
  call void @llvm.lifetime.end.p0(i64 4, ptr %3) #21
  ret float %12
}