; Function Attrs: mustprogress uwtable
define dso_local noundef float @_ZN4pbrt10MLTSampler5Get1DEv(ptr noundef nonnull align 8 dereferenceable(104) %0) local_unnamed_addr #0 align 2 {
  %2 = getelementptr inbounds nuw i8, ptr %0, i64 96
  %3 = load i32, ptr %2, align 8, !tbaa !242
  %4 = getelementptr inbounds nuw i8, ptr %0, i64 32
  %5 = load i32, ptr %4, align 8, !tbaa !247
  %6 = getelementptr inbounds nuw i8, ptr %0, i64 100
  %7 = load i32, ptr %6, align 4, !tbaa !248
  %8 = add nsw i32 %7, 1
  store i32 %8, ptr %6, align 4, !tbaa !248
  %9 = mul nsw i32 %7, %5
  %10 = add nsw i32 %9, %3
  tail call void @_ZN4pbrt10MLTSampler11EnsureReadyEi(ptr noundef nonnull align 8 dereferenceable(104) %0, i32 noundef %10)
  %11 = sext i32 %10 to i64
  %12 = getelementptr inbounds nuw i8, ptr %0, i64 48
  %13 = load ptr, ptr %12, align 8, !tbaa !249
  %14 = getelementptr inbounds nuw %"struct.pbrt::MLTSampler::PrimarySample", ptr %13, i64 %11
  %15 = load float, ptr %14, align 8, !tbaa !250
  ret float %15
}